target datalayout = "e-m:e-p270:32:32-p271:32:32-p272:64:64-i64:64-i128:128-f80:128-n8:16:32:64-S128"
target triple = "x86_64-pc-linux-gnu"

%struct.acttab = type { i32, i32, ptr, ptr, i32, i32, i32, i32, i32, i32, i32 }

; Function Attrs: nounwind null_pointer_is_valid sspstrong uwtable
define hidden void @acttab_free(ptr noundef %0) #2 {
  %2 = alloca ptr, align 8
  store ptr %0, ptr %2, align 8
  %3 = load ptr, ptr %2, align 8
  %4 = getelementptr inbounds nuw %struct.acttab, ptr %3, i32 0, i32 2
  %5 = load ptr, ptr %4, align 8
  call void @free(ptr noundef %5) #18
  %6 = load ptr, ptr %2, align 8
  %7 = getelementptr inbounds nuw %struct.acttab, ptr %6, i32 0, i32 3
  %8 = load ptr, ptr %7, align 8
  call void @free(ptr noundef %8) #18
  %9 = load ptr, ptr %2, align 8
  call void @free(ptr noundef %9) #18
  ret void
}