; Function Attrs: mustprogress nounwind null_pointer_is_valid sspstrong willreturn uwtable
define hidden void @acttab_free(ptr noundef captures(none) %0) local_unnamed_addr #2 {
  %2 = getelementptr inbounds nuw i8, ptr %0, i64 8
  %3 = load ptr, ptr %2, align 8
  tail call void @free(ptr noundef %3) #42
  %4 = getelementptr inbounds nuw i8, ptr %0, i64 16
  %5 = load ptr, ptr %4, align 8
  tail call void @free(ptr noundef %5) #42
  tail call void @free(ptr noundef %0) #42
  ret void
}